; Function Attrs: nounwind uwtable
define void @lv_demo_keypad_encoder() local_unnamed_addr #0 {
  %1 = tail call ptr @lv_group_create() #2
  store ptr %1, ptr @g, align 8, !tbaa !3
  tail call void @lv_group_set_default(ptr noundef %1) #2
  %2 = tail call ptr @lv_indev_get_next(ptr noundef null) #2
  %.not7 = icmp eq ptr %2, null
  br i1 %.not7, label %._crit_edge, label %.lr.ph

.lr.ph:                                           ; preds = %0, %6
  %3 = phi ptr [ %7, %6 ], [ %2, %0 ]
  %4 = tail call i32 @lv_indev_get_type(ptr noundef nonnull %3) #2
  switch i32 %4, label %6 [
    i32 2, label %.sink.split
    i32 4, label %.sink.split
  ]

.sink.split:                                      ; preds = %.lr.ph, %.lr.ph
  %5 = load ptr, ptr @g, align 8, !tbaa !3
  tail call void @lv_indev_set_group(ptr noundef nonnull %3, ptr noundef %5) #2
  br label %6

6:                                                ; preds = %.sink.split, %.lr.ph
  %7 = tail call ptr @lv_indev_get_next(ptr noundef nonnull %3) #2
  %.not = icmp eq ptr %7, null
  br i1 %.not, label %._crit_edge, label %.lr.ph

._crit_edge:                                      ; preds = %6, %0
  %8 = tail call ptr @lv_screen_active() #2
  %9 = tail call ptr @lv_tabview_create(ptr noundef %8) #2
  store ptr %9, ptr @tv, align 8, !tbaa !8
  %10 = tail call ptr @lv_tabview_add_tab(ptr noundef %9, ptr noundef nonnull @.str) #2
  store ptr %10, ptr @t1, align 8, !tbaa !8
  %11 = load ptr, ptr @tv, align 8, !tbaa !8
  %12 = tail call ptr @lv_tabview_add_tab(ptr noundef %11, ptr noundef nonnull @.str.1) #2
  store ptr %12, ptr @t2, align 8, !tbaa !8
  %13 = load ptr, ptr @t1, align 8, !tbaa !8
  tail call void @lv_obj_set_flex_flow(ptr noundef %13, i32 noundef 1) #2
  tail call void @lv_obj_set_flex_align(ptr noundef %13, i32 noundef 0, i32 noundef 2, i32 noundef 2) #2
  %14 = tail call ptr @lv_table_create(ptr noundef %13) #2
  tail call void @lv_table_set_cell_value(ptr noundef %14, i32 noundef 0, i32 noundef 0, ptr noundef nonnull @.str.2) #2
  tail call void @lv_table_set_cell_value(ptr noundef %14, i32 noundef 0, i32 noundef 1, ptr noundef nonnull @.str.3) #2
  tail call void @lv_table_set_cell_value(ptr noundef %14, i32 noundef 1, i32 noundef 0, ptr noundef nonnull @.str.4) #2
  tail call void @lv_table_set_cell_value(ptr noundef %14, i32 noundef 1, i32 noundef 1, ptr noundef nonnull @.str.5) #2
  tail call void @lv_table_set_cell_value(ptr noundef %14, i32 noundef 2, i32 noundef 0, ptr noundef nonnull @.str.6) #2
  tail call void @lv_table_set_cell_value(ptr noundef %14, i32 noundef 2, i32 noundef 1, ptr noundef nonnull @.str.7) #2
  tail call void @lv_table_set_cell_value(ptr noundef %14, i32 noundef 3, i32 noundef 0, ptr noundef nonnull @.str.8) #2
  tail call void @lv_table_set_cell_value(ptr noundef %14, i32 noundef 3, i32 noundef 1, ptr noundef nonnull @.str.9) #2
  tail call void @lv_obj_add_flag(ptr noundef %14, i32 noundef 1024) #2
  %15 = tail call ptr @lv_calendar_create(ptr noundef %13) #2
  tail call void @lv_obj_add_flag(ptr noundef %15, i32 noundef 1024) #2
  %16 = tail call ptr @lv_buttonmatrix_create(ptr noundef %13) #2
  tail call void @lv_obj_add_flag(ptr noundef %16, i32 noundef 1024) #2
  %17 = tail call ptr @lv_checkbox_create(ptr noundef %13) #2
  tail call void @lv_obj_add_flag(ptr noundef %17, i32 noundef 1024) #2
  %18 = tail call ptr @lv_slider_create(ptr noundef %13) #2
  tail call void @lv_slider_set_range(ptr noundef %18, i32 noundef 0, i32 noundef 10) #2
  tail call void @lv_obj_add_flag(ptr noundef %18, i32 noundef 1024) #2
  %19 = tail call ptr @lv_switch_create(ptr noundef %13) #2
  tail call void @lv_obj_add_flag(ptr noundef %19, i32 noundef 1024) #2
  %20 = tail call ptr @lv_spinbox_create(ptr noundef %13) #2
  tail call void @lv_obj_add_flag(ptr noundef %20, i32 noundef 1024) #2
  %21 = tail call ptr @lv_dropdown_create(ptr noundef %13) #2
  tail call void @lv_obj_add_flag(ptr noundef %21, i32 noundef 1024) #2
  %22 = tail call ptr @lv_roller_create(ptr noundef %13) #2
  tail call void @lv_obj_add_flag(ptr noundef %22, i32 noundef 1024) #2
  %23 = tail call ptr @lv_list_create(ptr noundef %13) #2
  tail call void @lv_obj_update_layout(ptr noundef %23) #2
  %24 = tail call i32 @lv_obj_get_height(ptr noundef %23) #2
  %25 = tail call i32 @lv_obj_get_content_height(ptr noundef %13) #2
  %26 = icmp sgt i32 %24, %25
  br i1 %26, label %27, label %selectors_create.exit

27:                                               ; preds = %._crit_edge
  %28 = tail call i32 @lv_obj_get_content_height(ptr noundef %13) #2
  tail call void @lv_obj_set_height(ptr noundef %23, i32 noundef %28) #2
  br label %selectors_create.exit

selectors_create.exit:                            ; preds = %._crit_edge, %27
  %29 = tail call ptr @lv_list_add_button(ptr noundef %23, ptr noundef nonnull @.str.10, ptr noundef nonnull @.str.11) #2
  %30 = tail call ptr @lv_list_add_button(ptr noundef %23, ptr noundef nonnull @.str.12, ptr noundef nonnull @.str.13) #2
  %31 = tail call ptr @lv_list_add_button(ptr noundef %23, ptr noundef nonnull @.str.14, ptr noundef nonnull @.str.15) #2
  %32 = tail call ptr @lv_list_add_button(ptr noundef %23, ptr noundef nonnull @.str.16, ptr noundef nonnull @.str.17) #2
  %33 = tail call ptr @lv_list_add_button(ptr noundef %23, ptr noundef nonnull @.str.18, ptr noundef nonnull @.str.19) #2
  %34 = tail call ptr @lv_list_add_button(ptr noundef %23, ptr noundef nonnull @.str.20, ptr noundef nonnull @.str.21) #2
  %35 = tail call ptr @lv_list_add_button(ptr noundef %23, ptr noundef nonnull @.str.22, ptr noundef nonnull @.str.23) #2
  %36 = load ptr, ptr @t2, align 8, !tbaa !8
  tail call void @lv_obj_set_flex_flow(ptr noundef %36, i32 noundef 1) #2
  %37 = tail call ptr @lv_textarea_create(ptr noundef %36) #2
  tail call void @lv_obj_set_width(ptr noundef %37, i32 noundef 536871012) #2
  tail call void @lv_textarea_set_one_line(ptr noundef %37, i1 noundef zeroext true) #2
  tail call void @lv_textarea_set_placeholder_text(ptr noundef %37, ptr noundef nonnull @.str.24) #2
  %38 = tail call ptr @lv_textarea_create(ptr noundef %36) #2
  tail call void @lv_obj_set_width(ptr noundef %38, i32 noundef 536871012) #2
  tail call void @lv_textarea_set_one_line(ptr noundef %38, i1 noundef zeroext true) #2
  tail call void @lv_textarea_set_placeholder_text(ptr noundef %38, ptr noundef nonnull @.str.25) #2
  %39 = tail call ptr @lv_screen_active() #2
  %40 = tail call ptr @lv_keyboard_create(ptr noundef %39) #2
  tail call void @lv_obj_add_flag(ptr noundef %40, i32 noundef 1) #2
  %41 = tail call ptr @lv_obj_add_event_cb(ptr noundef %37, ptr noundef nonnull @ta_event_cb, i32 noundef 0, ptr noundef %40) #2
  %42 = tail call ptr @lv_obj_add_event_cb(ptr noundef %38, ptr noundef nonnull @ta_event_cb, i32 noundef 0, ptr noundef %40) #2
  %43 = tail call ptr @lv_msgbox_create(ptr noundef null) #2
  %44 = tail call ptr @lv_msgbox_add_title(ptr noundef %43, ptr noundef nonnull @.str.26) #2
  %45 = tail call ptr @lv_msgbox_add_text(ptr noundef %43, ptr noundef nonnull @.str.27) #2
  %46 = tail call ptr @lv_msgbox_add_footer_button(ptr noundef %43, ptr noundef nonnull @.str.28) #2
  %47 = tail call ptr @lv_obj_add_event_cb(ptr noundef %46, ptr noundef nonnull @msgbox_event_cb, i32 noundef 10, ptr noundef %43) #2
  tail call void @lv_group_focus_obj(ptr noundef %46) #2
  tail call void @lv_obj_add_state(ptr noundef %46, i16 noundef zeroext 4) #2
  %48 = load ptr, ptr @g, align 8, !tbaa !3
  tail call void @lv_group_focus_freeze(ptr noundef %48, i1 noundef zeroext true) #2
  tail call void @lv_obj_align(ptr noundef %43, i32 noundef 9, i32 noundef 0, i32 noundef 0) #2
  %49 = tail call ptr @lv_obj_get_parent(ptr noundef %43) #2
  tail call void @lv_obj_set_style_bg_opa(ptr noundef %49, i8 noundef zeroext -78, i32 noundef 0) #2
  %50 = tail call i24 @lv_palette_main(i32 noundef 18) #2
  tail call void @lv_obj_set_style_bg_color(ptr noundef %49, i24 %50, i32 noundef 0) #2
  ret void
}